; Function Attrs: mustprogress uwtable
define hidden void @_ZNK19OpenColorIO_v2_5dev19GradingRGBCurveImpl8getCurveENS_12RGBCurveTypeE(ptr dead_on_unwind noalias writable writeonly sret(%"class.std::shared_ptr.5") align 8 captures(none) %0, ptr noundef nonnull readonly align 8 captures(none) dereferenceable(72) %1, i32 noundef %2) unnamed_addr #4 align 2 personality ptr @__gxx_personality_v0 {
  %or.cond = icmp ugt i32 %2, 3
  br i1 %or.cond, label %4, label %9

4:                                                ; preds = %3
  %5 = tail call ptr @__cxa_allocate_exception(i64 16) #21
  invoke void @_ZN19OpenColorIO_v2_5dev9ExceptionC1EPKc(ptr noundef nonnull align 8 dereferenceable(16) %5, ptr noundef nonnull @.str.7)
          to label %6 unwind label %7

6:                                                ; preds = %4
  tail call void @__cxa_throw(ptr nonnull %5, ptr nonnull @_ZTIN19OpenColorIO_v2_5dev9ExceptionE, ptr nonnull @_ZN19OpenColorIO_v2_5dev9ExceptionD1Ev) #22
  unreachable

7:                                                ; preds = %4
  %8 = landingpad { ptr, i32 }
          cleanup
  tail call void @__cxa_free_exception(ptr nonnull %5) #21
  resume { ptr, i32 } %8

9:                                                ; preds = %3
  %10 = getelementptr inbounds nuw i8, ptr %1, i64 8
  %11 = zext nneg i32 %2 to i64
  %12 = getelementptr inbounds nuw [4 x %"class.std::shared_ptr"], ptr %10, i64 0, i64 %11
  %13 = load ptr, ptr %12, align 8, !tbaa !16
  store ptr %13, ptr %0, align 8, !tbaa !30
  %14 = getelementptr inbounds nuw i8, ptr %0, i64 8
  %15 = getelementptr inbounds nuw i8, ptr %12, i64 8
  %16 = load ptr, ptr %15, align 8, !tbaa !21
  store ptr %16, ptr %14, align 8, !tbaa !21
  %.not.i.i.i = icmp eq ptr %16, null
  br i1 %.not.i.i.i, label %_ZNSt10shared_ptrIKN19OpenColorIO_v2_5dev19GradingBSplineCurveEEC2IS1_vEERKS_IT_E.exit, label %17

17:                                               ; preds = %9
  %18 = getelementptr inbounds nuw i8, ptr %16, i64 8
  %19 = load i8, ptr @__libc_single_threaded, align 1, !tbaa !27
  %.not.i.i.i.i = icmp eq i8 %19, 0
  br i1 %.not.i.i.i.i, label %23, label %20

20:                                               ; preds = %17
  %21 = load i32, ptr %18, align 4, !tbaa !28
  %22 = add nsw i32 %21, 1
  store i32 %22, ptr %18, align 4, !tbaa !28
  br label %_ZNSt10shared_ptrIKN19OpenColorIO_v2_5dev19GradingBSplineCurveEEC2IS1_vEERKS_IT_E.exit

23:                                               ; preds = %17
  %24 = atomicrmw volatile add ptr %18, i32 1 acq_rel, align 4
  br label %_ZNSt10shared_ptrIKN19OpenColorIO_v2_5dev19GradingBSplineCurveEEC2IS1_vEERKS_IT_E.exit

_ZNSt10shared_ptrIKN19OpenColorIO_v2_5dev19GradingBSplineCurveEEC2IS1_vEERKS_IT_E.exit: ; preds = %9, %20, %23
  ret void
}